; Function Attrs: nounwind sspstrong uwtable
define dso_local zeroext i1 @visit_type_GuestPanicInformationType(ptr noundef %v, ptr noundef %name, ptr noundef captures(none) %obj, ptr noundef %errp) local_unnamed_addr #0 {
entry:
  %value = alloca i32, align 4
  %0 = load i32, ptr %obj, align 4
  store i32 %0, ptr %value, align 4
  %call = call zeroext i1 @visit_type_enum(ptr noundef %v, ptr noundef %name, ptr noundef nonnull %value, ptr noundef nonnull @GuestPanicInformationType_lookup, ptr noundef %errp) #5
  %1 = load i32, ptr %value, align 4
  store i32 %1, ptr %obj, align 4
  ret i1 %call
}